target datalayout = "e-m:e-p270:32:32-p271:32:32-p272:64:64-i64:64-i128:128-f80:128-n8:16:32:64-S128"
target triple = "x86_64-pc-linux-gnu"

%struct.SHA256state_st = type { [8 x i32], i32, i32, [16 x i32], i32, i32 }

; Function Attrs: nounwind uwtable
define internal void @tls1_sha256_final_raw(ptr noundef %0, ptr noundef %1) #0 {
  %3 = alloca ptr, align 8
  %4 = alloca ptr, align 8
  %5 = alloca ptr, align 8
  %6 = alloca i32, align 4
  store ptr %0, ptr %3, align 8, !tbaa !19
  store ptr %1, ptr %4, align 8, !tbaa !8
  call void @llvm.lifetime.start.p0(i64 8, ptr %5) #7
  %7 = load ptr, ptr %3, align 8, !tbaa !19
  store ptr %7, ptr %5, align 8, !tbaa !43
  call void @llvm.lifetime.start.p0(i64 4, ptr %6) #7
  store i32 0, ptr %6, align 4, !tbaa !17
  br label %8

8:                                                ; preds = %55, %2
  %9 = load i32, ptr %6, align 4, !tbaa !17
  %10 = icmp ult i32 %9, 8
  br i1 %10, label %11, label %58

11:                                               ; preds = %8
  %12 = load ptr, ptr %5, align 8, !tbaa !43
  %13 = getelementptr inbounds nuw %struct.SHA256state_st, ptr %12, i32 0, i32 0
  %14 = load i32, ptr %6, align 4, !tbaa !17
  %15 = zext i32 %14 to i64
  %16 = getelementptr inbounds nuw [8 x i32], ptr %13, i64 0, i64 %15
  %17 = load i32, ptr %16, align 4, !tbaa !17
  %18 = lshr i32 %17, 24
  %19 = and i32 %18, 255
  %20 = trunc i32 %19 to i8
  %21 = load ptr, ptr %4, align 8, !tbaa !8
  %22 = getelementptr inbounds nuw i8, ptr %21, i32 1
  store ptr %22, ptr %4, align 8, !tbaa !8
  store i8 %20, ptr %21, align 1, !tbaa !14
  %23 = load ptr, ptr %5, align 8, !tbaa !43
  %24 = getelementptr inbounds nuw %struct.SHA256state_st, ptr %23, i32 0, i32 0
  %25 = load i32, ptr %6, align 4, !tbaa !17
  %26 = zext i32 %25 to i64
  %27 = getelementptr inbounds nuw [8 x i32], ptr %24, i64 0, i64 %26
  %28 = load i32, ptr %27, align 4, !tbaa !17
  %29 = lshr i32 %28, 16
  %30 = and i32 %29, 255
  %31 = trunc i32 %30 to i8
  %32 = load ptr, ptr %4, align 8, !tbaa !8
  %33 = getelementptr inbounds nuw i8, ptr %32, i32 1
  store ptr %33, ptr %4, align 8, !tbaa !8
  store i8 %31, ptr %32, align 1, !tbaa !14
  %34 = load ptr, ptr %5, align 8, !tbaa !43
  %35 = getelementptr inbounds nuw %struct.SHA256state_st, ptr %34, i32 0, i32 0
  %36 = load i32, ptr %6, align 4, !tbaa !17
  %37 = zext i32 %36 to i64
  %38 = getelementptr inbounds nuw [8 x i32], ptr %35, i64 0, i64 %37
  %39 = load i32, ptr %38, align 4, !tbaa !17
  %40 = lshr i32 %39, 8
  %41 = and i32 %40, 255
  %42 = trunc i32 %41 to i8
  %43 = load ptr, ptr %4, align 8, !tbaa !8
  %44 = getelementptr inbounds nuw i8, ptr %43, i32 1
  store ptr %44, ptr %4, align 8, !tbaa !8
  store i8 %42, ptr %43, align 1, !tbaa !14
  %45 = load ptr, ptr %5, align 8, !tbaa !43
  %46 = getelementptr inbounds nuw %struct.SHA256state_st, ptr %45, i32 0, i32 0
  %47 = load i32, ptr %6, align 4, !tbaa !17
  %48 = zext i32 %47 to i64
  %49 = getelementptr inbounds nuw [8 x i32], ptr %46, i64 0, i64 %48
  %50 = load i32, ptr %49, align 4, !tbaa !17
  %51 = and i32 %50, 255
  %52 = trunc i32 %51 to i8
  %53 = load ptr, ptr %4, align 8, !tbaa !8
  %54 = getelementptr inbounds nuw i8, ptr %53, i32 1
  store ptr %54, ptr %4, align 8, !tbaa !8
  store i8 %52, ptr %53, align 1, !tbaa !14
  br label %55

55:                                               ; preds = %11
  %56 = load i32, ptr %6, align 4, !tbaa !17
  %57 = add i32 %56, 1
  store i32 %57, ptr %6, align 4, !tbaa !17
  br label %8, !llvm.loop !45

58:                                               ; preds = %8
  call void @llvm.lifetime.end.p0(i64 4, ptr %6) #7
  call void @llvm.lifetime.end.p0(i64 8, ptr %5) #7
  ret void
}